target datalayout = "e-m:e-p270:32:32-p271:32:32-p272:64:64-i64:64-i128:128-f80:128-n8:16:32:64-S128"
target triple = "x86_64-pc-linux-gnu"

%class.ThreadShadow = type <{ ptr, ptr, ptr, i32, [4 x i8] }>
%class.ExceptionMark = type { ptr }

@_ZN13ObjectMonitor12_oop_storageE = hidden global ptr null, align 8
@_ZN13ObjectMonitor14Knob_SpinLimitE = hidden global i32 5000, align 4
@_ZN13ObjectMonitor27_sync_ContendedLockAttemptsE = hidden global ptr null, align 8
@_ZN13ObjectMonitor19_sync_FutileWakeupsE = hidden global ptr null, align 8
@_ZN13ObjectMonitor11_sync_ParksE = hidden global ptr null, align 8
@_ZN13ObjectMonitor19_sync_NotificationsE = hidden global ptr null, align 8
@_ZL14Knob_FixedSpin = internal global i32 0, align 4
@_ZL12Knob_PreSpin = internal global i32 10, align 4
@_ZN13ObjectMonitor16_sync_InflationsE = hidden global ptr null, align 8
@_ZN13ObjectMonitor16_sync_DeflationsE = hidden global ptr null, align 8
@_ZN13ObjectMonitor15_sync_MonExtantE = hidden global ptr null, align 8
@UsePerfData = external global i8, align 1
@.str.37 = private unnamed_addr constant [17 x i8] c"_sync_Inflations\00", align 1
@.str.38 = private unnamed_addr constant [17 x i8] c"_sync_Deflations\00", align 1
@.str.39 = private unnamed_addr constant [28 x i8] c"_sync_ContendedLockAttempts\00", align 1
@.str.40 = private unnamed_addr constant [20 x i8] c"_sync_FutileWakeups\00", align 1
@.str.41 = private unnamed_addr constant [12 x i8] c"_sync_Parks\00", align 1
@.str.42 = private unnamed_addr constant [20 x i8] c"_sync_Notifications\00", align 1
@.str.43 = private unnamed_addr constant [16 x i8] c"_sync_MonExtant\00", align 1
@.str.44 = private unnamed_addr constant [24 x i8] c"ObjectSynchronizer Weak\00", align 1
@_ZN2os16_processor_countE = external global i32, align 4

; Function Attrs: mustprogress nounwind uwtable
define linkonce_odr hidden noundef ptr @_ZN15PerfDataManager15create_variableE9CounterNSPKcN8PerfData5UnitsEP10JavaThread(i32 noundef %0, ptr noundef %1, i32 noundef %2, ptr noundef %3) #1 comdat align 2 {
  %5 = alloca i32, align 4
  %6 = alloca ptr, align 8
  %7 = alloca i32, align 4
  %8 = alloca ptr, align 8
  store i32 %0, ptr %5, align 4
  store ptr %1, ptr %6, align 8
  store i32 %2, ptr %7, align 4
  store ptr %3, ptr %8, align 8
  %9 = load i32, ptr %5, align 4
  %10 = load ptr, ptr %6, align 8
  %11 = load i32, ptr %7, align 4
  %12 = load ptr, ptr %8, align 8
  %13 = call noundef ptr @_ZN15PerfDataManager20create_long_variableE9CounterNSPKcN8PerfData5UnitsElP10JavaThread(i32 noundef %9, ptr noundef %10, i32 noundef %11, i64 noundef 0, ptr noundef %12)
  ret ptr %13
}

; Function Attrs: mustprogress nounwind uwtable
define linkonce_odr hidden noundef zeroext i1 @_ZNK12ThreadShadow21has_pending_exceptionEv(ptr noundef nonnull align 8 dereferenceable(28) %0) #1 comdat align 2 {
  %2 = alloca ptr, align 8
  store ptr %0, ptr %2, align 8
  %3 = load ptr, ptr %2, align 8
  %4 = getelementptr inbounds %class.ThreadShadow, ptr %3, i32 0, i32 1
  %5 = load ptr, ptr %4, align 8
  %6 = icmp ne ptr %5, null
  ret i1 %6
}

; Function Attrs: mustprogress nounwind uwtable
define linkonce_odr hidden noundef ptr @_ZN15PerfDataManager14create_counterE9CounterNSPKcN8PerfData5UnitsEP10JavaThread(i32 noundef %0, ptr noundef %1, i32 noundef %2, ptr noundef %3) #1 comdat align 2 {
  %5 = alloca i32, align 4
  %6 = alloca ptr, align 8
  %7 = alloca i32, align 4
  %8 = alloca ptr, align 8
  store i32 %0, ptr %5, align 4
  store ptr %1, ptr %6, align 8
  store i32 %2, ptr %7, align 4
  store ptr %3, ptr %8, align 8
  %9 = load i32, ptr %5, align 4
  %10 = load ptr, ptr %6, align 8
  %11 = load i32, ptr %7, align 4
  %12 = load ptr, ptr %8, align 8
  %13 = call noundef ptr @_ZN15PerfDataManager19create_long_counterE9CounterNSPKcN8PerfData5UnitsElP10JavaThread(i32 noundef %9, ptr noundef %10, i32 noundef %11, i64 noundef 0, ptr noundef %12)
  ret ptr %13
}

; Function Attrs: mustprogress nounwind uwtable
define linkonce_odr hidden noundef ptr @_ZN13ExceptionMark6threadEv(ptr noundef nonnull align 8 dereferenceable(8) %0) #1 comdat align 2 {
  %2 = alloca ptr, align 8
  store ptr %0, ptr %2, align 8
  %3 = load ptr, ptr %2, align 8
  %4 = getelementptr inbounds %class.ExceptionMark, ptr %3, i32 0, i32 0
  %5 = load ptr, ptr %4, align 8
  ret ptr %5
}

; Function Attrs: mustprogress nounwind uwtable
define linkonce_odr hidden noundef zeroext i1 @_ZN2os5is_MPEv() #1 comdat align 2 {
  %1 = load i32, ptr @_ZN2os16_processor_countE, align 4
  %2 = icmp ne i32 %1, 1
  ret i1 %2
}

; Function Attrs: mustprogress nounwind uwtable
define hidden void @_ZN13ObjectMonitor10InitializeEv() #1 align 2 {
  %1 = alloca %class.ExceptionMark, align 8
  %2 = alloca ptr, align 8
  %3 = alloca i32, align 4
  %4 = call noundef zeroext i1 @_ZN2os5is_MPEv()
  br i1 %4, label %6, label %5

5:                                                ; preds = %0
  store i32 0, ptr @_ZN13ObjectMonitor14Knob_SpinLimitE, align 4
  store i32 0, ptr @_ZL12Knob_PreSpin, align 4
  store i32 -1, ptr @_ZL14Knob_FixedSpin, align 4
  br label %6

6:                                                ; preds = %5, %0
  %7 = load i8, ptr @UsePerfData, align 1
  %8 = trunc i8 %7 to i1
  br i1 %8, label %9, label %56

9:                                                ; preds = %6
  call void @_ZN13ExceptionMarkC1Ev(ptr noundef nonnull align 8 dereferenceable(8) %1)
  %10 = call noundef ptr @_ZN13ExceptionMark6threadEv(ptr noundef nonnull align 8 dereferenceable(8) %1)
  store ptr %10, ptr %2, align 8
  %11 = load ptr, ptr %2, align 8
  %12 = call noundef ptr @_ZN15PerfDataManager14create_counterE9CounterNSPKcN8PerfData5UnitsEP10JavaThread(i32 noundef 14, ptr noundef @.str.37, i32 noundef 4, ptr noundef %11)
  store ptr %12, ptr @_ZN13ObjectMonitor16_sync_InflationsE, align 8
  %13 = load ptr, ptr %2, align 8
  %14 = call noundef zeroext i1 @_ZNK12ThreadShadow21has_pending_exceptionEv(ptr noundef nonnull align 8 dereferenceable(28) %13)
  br i1 %14, label %15, label %16

15:                                               ; preds = %9
  store i32 1, ptr %3, align 4
  br label %53

16:                                               ; preds = %9
  %17 = load ptr, ptr %2, align 8
  %18 = call noundef ptr @_ZN15PerfDataManager14create_counterE9CounterNSPKcN8PerfData5UnitsEP10JavaThread(i32 noundef 14, ptr noundef @.str.38, i32 noundef 4, ptr noundef %17)
  store ptr %18, ptr @_ZN13ObjectMonitor16_sync_DeflationsE, align 8
  %19 = load ptr, ptr %2, align 8
  %20 = call noundef zeroext i1 @_ZNK12ThreadShadow21has_pending_exceptionEv(ptr noundef nonnull align 8 dereferenceable(28) %19)
  br i1 %20, label %21, label %22

21:                                               ; preds = %16
  store i32 1, ptr %3, align 4
  br label %53

22:                                               ; preds = %16
  %23 = load ptr, ptr %2, align 8
  %24 = call noundef ptr @_ZN15PerfDataManager14create_counterE9CounterNSPKcN8PerfData5UnitsEP10JavaThread(i32 noundef 14, ptr noundef @.str.39, i32 noundef 4, ptr noundef %23)
  store ptr %24, ptr @_ZN13ObjectMonitor27_sync_ContendedLockAttemptsE, align 8
  %25 = load ptr, ptr %2, align 8
  %26 = call noundef zeroext i1 @_ZNK12ThreadShadow21has_pending_exceptionEv(ptr noundef nonnull align 8 dereferenceable(28) %25)
  br i1 %26, label %27, label %28

27:                                               ; preds = %22
  store i32 1, ptr %3, align 4
  br label %53

28:                                               ; preds = %22
  %29 = load ptr, ptr %2, align 8
  %30 = call noundef ptr @_ZN15PerfDataManager14create_counterE9CounterNSPKcN8PerfData5UnitsEP10JavaThread(i32 noundef 14, ptr noundef @.str.40, i32 noundef 4, ptr noundef %29)
  store ptr %30, ptr @_ZN13ObjectMonitor19_sync_FutileWakeupsE, align 8
  %31 = load ptr, ptr %2, align 8
  %32 = call noundef zeroext i1 @_ZNK12ThreadShadow21has_pending_exceptionEv(ptr noundef nonnull align 8 dereferenceable(28) %31)
  br i1 %32, label %33, label %34

33:                                               ; preds = %28
  store i32 1, ptr %3, align 4
  br label %53

34:                                               ; preds = %28
  %35 = load ptr, ptr %2, align 8
  %36 = call noundef ptr @_ZN15PerfDataManager14create_counterE9CounterNSPKcN8PerfData5UnitsEP10JavaThread(i32 noundef 14, ptr noundef @.str.41, i32 noundef 4, ptr noundef %35)
  store ptr %36, ptr @_ZN13ObjectMonitor11_sync_ParksE, align 8
  %37 = load ptr, ptr %2, align 8
  %38 = call noundef zeroext i1 @_ZNK12ThreadShadow21has_pending_exceptionEv(ptr noundef nonnull align 8 dereferenceable(28) %37)
  br i1 %38, label %39, label %40

39:                                               ; preds = %34
  store i32 1, ptr %3, align 4
  br label %53

40:                                               ; preds = %34
  %41 = load ptr, ptr %2, align 8
  %42 = call noundef ptr @_ZN15PerfDataManager14create_counterE9CounterNSPKcN8PerfData5UnitsEP10JavaThread(i32 noundef 14, ptr noundef @.str.42, i32 noundef 4, ptr noundef %41)
  store ptr %42, ptr @_ZN13ObjectMonitor19_sync_NotificationsE, align 8
  %43 = load ptr, ptr %2, align 8
  %44 = call noundef zeroext i1 @_ZNK12ThreadShadow21has_pending_exceptionEv(ptr noundef nonnull align 8 dereferenceable(28) %43)
  br i1 %44, label %45, label %46

45:                                               ; preds = %40
  store i32 1, ptr %3, align 4
  br label %53

46:                                               ; preds = %40
  %47 = load ptr, ptr %2, align 8
  %48 = call noundef ptr @_ZN15PerfDataManager15create_variableE9CounterNSPKcN8PerfData5UnitsEP10JavaThread(i32 noundef 14, ptr noundef @.str.43, i32 noundef 4, ptr noundef %47)
  store ptr %48, ptr @_ZN13ObjectMonitor15_sync_MonExtantE, align 8
  %49 = load ptr, ptr %2, align 8
  %50 = call noundef zeroext i1 @_ZNK12ThreadShadow21has_pending_exceptionEv(ptr noundef nonnull align 8 dereferenceable(28) %49)
  br i1 %50, label %51, label %52

51:                                               ; preds = %46
  store i32 1, ptr %3, align 4
  br label %53

52:                                               ; preds = %46
  store i32 0, ptr %3, align 4
  br label %53

53:                                               ; preds = %52, %51, %45, %39, %33, %27, %21, %15
  call void @_ZN13ExceptionMarkD1Ev(ptr noundef nonnull align 8 dereferenceable(8) %1) #8
  %54 = load i32, ptr %3, align 4
  switch i32 %54, label %59 [
    i32 0, label %55
    i32 1, label %58
  ]

55:                                               ; preds = %53
  br label %56

56:                                               ; preds = %55, %6
  %57 = call noundef ptr @_ZN13OopStorageSet11create_weakEPKc8MEMFLAGS(ptr noundef @.str.44, i8 noundef zeroext 22)
  store ptr %57, ptr @_ZN13ObjectMonitor12_oop_storageE, align 8
  br label %58

58:                                               ; preds = %56, %53
  ret void

59:                                               ; preds = %53
  unreachable
}